target datalayout = "e-m:e-p270:32:32-p271:32:32-p272:64:64-i64:64-i128:128-f80:128-n8:16:32:64-S128"
target triple = "x86_64-pc-linux-gnu"

%struct.mbedtls_x509write_csr = type { ptr, ptr, i32, ptr }

; Function Attrs: nounwind uwtable
define hidden void @mbedtls_x509write_csr_free(ptr noundef %0) #0 {
  %2 = alloca ptr, align 8
  store ptr %0, ptr %2, align 8, !tbaa !3
  %3 = load ptr, ptr %2, align 8, !tbaa !3
  %4 = icmp eq ptr %3, null
  br i1 %4, label %5, label %6

5:                                                ; preds = %1
  br label %12

6:                                                ; preds = %1
  %7 = load ptr, ptr %2, align 8, !tbaa !3
  %8 = getelementptr inbounds nuw %struct.mbedtls_x509write_csr, ptr %7, i32 0, i32 1
  call void @mbedtls_asn1_free_named_data_list(ptr noundef %8)
  %9 = load ptr, ptr %2, align 8, !tbaa !3
  %10 = getelementptr inbounds nuw %struct.mbedtls_x509write_csr, ptr %9, i32 0, i32 3
  call void @mbedtls_asn1_free_named_data_list(ptr noundef %10)
  %11 = load ptr, ptr %2, align 8, !tbaa !3
  call void @mbedtls_platform_zeroize(ptr noundef %11, i64 noundef 32)
  br label %12

12:                                               ; preds = %6, %5
  ret void
}