; Function Attrs: nounwind uwtable
define hidden void @mbedtls_x509write_csr_free(ptr noundef %0) local_unnamed_addr #2 {
  %2 = icmp eq ptr %0, null
  br i1 %2, label %6, label %3

3:                                                ; preds = %1
  %4 = getelementptr inbounds nuw i8, ptr %0, i64 8
  tail call void @mbedtls_asn1_free_named_data_list(ptr noundef nonnull %4) #8
  %5 = getelementptr inbounds nuw i8, ptr %0, i64 24
  tail call void @mbedtls_asn1_free_named_data_list(ptr noundef nonnull %5) #8
  tail call void @mbedtls_platform_zeroize(ptr noundef nonnull %0, i64 noundef 32) #8
  br label %6

6:                                                ; preds = %1, %3
  ret void
}